; Function Attrs: mustprogress nounwind uwtable
define void @_ZN4LIEF2PE11DelayImportC2ERKNS0_7details13delay_importsENS0_7PE_TYPEE(ptr noundef nonnull align 8 dereferenceable(98) %0, ptr noundef nonnull readonly align 4 captures(none) dereferenceable(32) %1, i16 noundef zeroext %2) unnamed_addr #0 align 2 {
  tail call void @_ZN4LIEF6ObjectC2Ev(ptr noundef nonnull align 8 dereferenceable(8) %0) #21
  store ptr getelementptr inbounds nuw inrange(-16, 40) (i8, ptr @_ZTVN4LIEF2PE11DelayImportE, i64 16), ptr %0, align 8, !tbaa !15
  %4 = getelementptr inbounds nuw i8, ptr %0, i64 8
  %5 = load i32, ptr %1, align 4, !tbaa !17
  store i32 %5, ptr %4, align 8, !tbaa !19
  %6 = getelementptr inbounds nuw i8, ptr %0, i64 16
  %7 = getelementptr inbounds nuw i8, ptr %0, i64 32
  store ptr %7, ptr %6, align 8, !tbaa !29
  %8 = getelementptr inbounds nuw i8, ptr %0, i64 24
  store i64 0, ptr %8, align 8, !tbaa !30
  store i8 0, ptr %7, align 8, !tbaa !31
  %9 = getelementptr inbounds nuw i8, ptr %0, i64 48
  %10 = getelementptr inbounds nuw i8, ptr %1, i64 8
  %11 = load i32, ptr %10, align 4, !tbaa !32
  store i32 %11, ptr %9, align 8, !tbaa !33
  %12 = getelementptr inbounds nuw i8, ptr %0, i64 52
  %13 = getelementptr inbounds nuw i8, ptr %1, i64 12
  %14 = load i32, ptr %13, align 4, !tbaa !34
  store i32 %14, ptr %12, align 4, !tbaa !35
  %15 = getelementptr inbounds nuw i8, ptr %0, i64 56
  %16 = getelementptr inbounds nuw i8, ptr %1, i64 16
  %17 = load i32, ptr %16, align 4, !tbaa !36
  store i32 %17, ptr %15, align 8, !tbaa !37
  %18 = getelementptr inbounds nuw i8, ptr %0, i64 60
  %19 = getelementptr inbounds nuw i8, ptr %1, i64 20
  %20 = load i32, ptr %19, align 4, !tbaa !38
  store i32 %20, ptr %18, align 4, !tbaa !39
  %21 = getelementptr inbounds nuw i8, ptr %0, i64 64
  %22 = getelementptr inbounds nuw i8, ptr %1, i64 24
  %23 = load i32, ptr %22, align 4, !tbaa !40
  store i32 %23, ptr %21, align 8, !tbaa !41
  %24 = getelementptr inbounds nuw i8, ptr %0, i64 68
  %25 = getelementptr inbounds nuw i8, ptr %1, i64 28
  %26 = load i32, ptr %25, align 4, !tbaa !42
  store i32 %26, ptr %24, align 4, !tbaa !43
  %27 = getelementptr inbounds nuw i8, ptr %0, i64 72
  tail call void @llvm.memset.p0.i64(ptr noundef nonnull align 8 dereferenceable(24) %27, i8 0, i64 24, i1 false)
  %28 = getelementptr inbounds nuw i8, ptr %0, i64 96
  store i16 %2, ptr %28, align 8, !tbaa !44
  ret void
}